target datalayout = "e-m:e-p270:32:32-p271:32:32-p272:64:64-i64:64-i128:128-f80:128-n8:16:32:64-S128"
target triple = "x86_64-pc-linux-gnu"

%struct.signals = type { [8 x i8], i32 }

@rb_eArgError = external global i64, align 8
@.str.27 = private unnamed_addr constant [27 x i8] c"invalid signal number (%d)\00", align 1
@.str.35 = private unnamed_addr constant [6 x i8] c"SIG%s\00", align 1
@.str.36 = private unnamed_addr constant [6 x i8] c"SIG%u\00", align 1
@.str.37 = private unnamed_addr constant [7 x i8] c"to_int\00", align 1
@.str.38 = private unnamed_addr constant [4 x i8] c"SIG\00", align 1
@ruby_static_id_signo = external global i64, align 8

; Function Attrs: inlinehint nounwind sspstrong willreturn memory(none) uwtable
define internal i64 @RB_INT2FIX(i64 noundef %0) #6 {
  %2 = alloca i64, align 8
  %3 = alloca i64, align 8
  %4 = alloca i64, align 8
  %5 = alloca i64, align 8
  %6 = alloca i64, align 8
  %7 = alloca i64, align 8
  store i64 %0, ptr %2, align 8, !tbaa !22
  call void @llvm.lifetime.start.p0(i64 8, ptr %3) #22
  %8 = load i64, ptr %2, align 8, !tbaa !22
  store i64 %8, ptr %3, align 8, !tbaa !22
  call void @llvm.lifetime.start.p0(i64 8, ptr %4) #22
  %9 = load i64, ptr %3, align 8, !tbaa !22
  %10 = shl i64 %9, 1
  %11 = add i64 %10, 1
  store i64 %11, ptr %4, align 8, !tbaa !22
  call void @llvm.lifetime.start.p0(i64 8, ptr %5) #22
  %12 = load i64, ptr %4, align 8, !tbaa !22
  store i64 %12, ptr %5, align 8, !tbaa !22
  call void @llvm.lifetime.start.p0(i64 8, ptr %6) #22
  %13 = load i64, ptr %5, align 8, !tbaa !22
  store i64 %13, ptr %6, align 8, !tbaa !22
  call void @llvm.lifetime.start.p0(i64 8, ptr %7) #22
  %14 = load i64, ptr %6, align 8, !tbaa !22
  store i64 %14, ptr %7, align 8, !tbaa !22
  %15 = load i64, ptr %7, align 8, !tbaa !22
  call void @llvm.lifetime.end.p0(i64 8, ptr %7) #22
  call void @llvm.lifetime.end.p0(i64 8, ptr %6) #22
  call void @llvm.lifetime.end.p0(i64 8, ptr %5) #22
  call void @llvm.lifetime.end.p0(i64 8, ptr %4) #22
  call void @llvm.lifetime.end.p0(i64 8, ptr %3) #22
  ret i64 %15
}

; Function Attrs: inlinehint nounwind sspstrong uwtable
define internal i64 @rbimpl_strlen(ptr noundef nonnull %0) #5 {
  %2 = alloca ptr, align 8
  store ptr %0, ptr %2, align 8, !tbaa !18
  %3 = load ptr, ptr %2, align 8, !tbaa !18
  %4 = call i64 @strlen(ptr noundef %3) #29
  ret i64 %4
}

; Function Attrs: nounwind sspstrong uwtable
define internal ptr @signo2signm(i32 noundef %0) #1 {
  %2 = alloca ptr, align 8
  %3 = alloca i32, align 4
  %4 = alloca ptr, align 8
  %5 = alloca i32, align 4
  store i32 %0, ptr %3, align 4, !tbaa !7
  call void @llvm.lifetime.start.p0(i64 8, ptr %4) #22
  store ptr @siglist, ptr %4, align 8, !tbaa !11
  br label %6

6:                                                ; preds = %20, %1
  %7 = load ptr, ptr %4, align 8, !tbaa !11
  %8 = icmp ult ptr %7, getelementptr (%struct.signals, ptr @siglist, i64 34)
  br i1 %8, label %9, label %23

9:                                                ; preds = %6
  %10 = load ptr, ptr %4, align 8, !tbaa !11
  %11 = getelementptr inbounds nuw %struct.signals, ptr %10, i32 0, i32 1
  %12 = load i32, ptr %11, align 4, !tbaa !14
  %13 = load i32, ptr %3, align 4, !tbaa !7
  %14 = icmp eq i32 %12, %13
  br i1 %14, label %15, label %19

15:                                               ; preds = %9
  %16 = load ptr, ptr %4, align 8, !tbaa !11
  %17 = getelementptr inbounds nuw %struct.signals, ptr %16, i32 0, i32 0
  %18 = getelementptr inbounds [8 x i8], ptr %17, i64 0, i64 0
  store ptr %18, ptr %2, align 8
  store i32 1, ptr %5, align 4
  br label %24

19:                                               ; preds = %9
  br label %20

20:                                               ; preds = %19
  %21 = load ptr, ptr %4, align 8, !tbaa !11
  %22 = getelementptr %struct.signals, ptr %21, i32 1
  store ptr %22, ptr %4, align 8, !tbaa !11
  br label %6, !llvm.loop !16

23:                                               ; preds = %6
  store ptr null, ptr %2, align 8
  store i32 1, ptr %5, align 4
  br label %24

24:                                               ; preds = %23, %15
  call void @llvm.lifetime.end.p0(i64 8, ptr %4) #22
  %25 = load ptr, ptr %2, align 8
  ret ptr %25
}

; Function Attrs: inlinehint nounwind sspstrong willreturn memory(none) uwtable
define internal zeroext i1 @RB_FIXNUM_P(i64 noundef %0) #6 {
  %2 = alloca i64, align 8
  store i64 %0, ptr %2, align 8, !tbaa !22
  %3 = load i64, ptr %2, align 8, !tbaa !22
  %4 = and i64 %3, 1
  %5 = icmp ne i64 %4, 0
  ret i1 %5
}

; Function Attrs: inlinehint nounwind sspstrong uwtable
define internal i64 @rb_int2num_inline(i32 noundef %0) #5 {
  %2 = alloca i64, align 8
  %3 = alloca i32, align 4
  store i32 %0, ptr %3, align 4, !tbaa !7
  %4 = load i32, ptr %3, align 4, !tbaa !7
  %5 = sext i32 %4 to i64
  %6 = icmp slt i64 %5, 4611686018427387904
  br i1 %6, label %7, label %15

7:                                                ; preds = %1
  %8 = load i32, ptr %3, align 4, !tbaa !7
  %9 = sext i32 %8 to i64
  %10 = icmp sge i64 %9, -4611686018427387904
  br i1 %10, label %11, label %15

11:                                               ; preds = %7
  %12 = load i32, ptr %3, align 4, !tbaa !7
  %13 = sext i32 %12 to i64
  %14 = call i64 @RB_INT2FIX(i64 noundef %13) #28
  store i64 %14, ptr %2, align 8
  br label %19

15:                                               ; preds = %7, %1
  %16 = load i32, ptr %3, align 4, !tbaa !7
  %17 = sext i32 %16 to i64
  %18 = call i64 @rb_int2big(i64 noundef %17)
  store i64 %18, ptr %2, align 8
  br label %19

19:                                               ; preds = %15, %11
  %20 = load i64, ptr %2, align 8
  ret i64 %20
}

; Function Attrs: inlinehint nounwind sspstrong uwtable
define internal i64 @rbimpl_str_new_cstr(ptr noundef nonnull %0) #5 {
  %2 = alloca ptr, align 8
  %3 = alloca i64, align 8
  store ptr %0, ptr %2, align 8, !tbaa !18
  call void @llvm.lifetime.start.p0(i64 8, ptr %3) #22
  %4 = load ptr, ptr %2, align 8, !tbaa !18
  %5 = call i64 @rbimpl_strlen(ptr noundef %4)
  store i64 %5, ptr %3, align 8, !tbaa !22
  %6 = load ptr, ptr %2, align 8, !tbaa !18
  %7 = load i64, ptr %3, align 8, !tbaa !22
  %8 = call i64 @rb_str_new_static(ptr noundef %6, i64 noundef %7)
  call void @llvm.lifetime.end.p0(i64 8, ptr %3) #22
  ret i64 %8
}

; Function Attrs: nounwind sspstrong uwtable
define internal i64 @rb_signo2signm(i32 noundef %0) #1 {
  %2 = alloca i64, align 8
  %3 = alloca i32, align 4
  %4 = alloca ptr, align 8
  %5 = alloca i32, align 4
  store i32 %0, ptr %3, align 4, !tbaa !7
  call void @llvm.lifetime.start.p0(i64 8, ptr %4) #22
  %6 = load i32, ptr %3, align 4, !tbaa !7
  %7 = call ptr @signo2signm(i32 noundef %6)
  store ptr %7, ptr %4, align 8, !tbaa !18
  %8 = load ptr, ptr %4, align 8, !tbaa !18
  %9 = icmp ne ptr %8, null
  br i1 %9, label %10, label %13

10:                                               ; preds = %1
  %11 = load ptr, ptr %4, align 8, !tbaa !18
  %12 = call i64 (ptr, ...) @rb_sprintf(ptr noundef @.str.35, ptr noundef %11)
  store i64 %12, ptr %2, align 8
  store i32 1, ptr %5, align 4
  br label %16

13:                                               ; preds = %1
  %14 = load i32, ptr %3, align 4, !tbaa !7
  %15 = call i64 (ptr, ...) @rb_sprintf(ptr noundef @.str.36, i32 noundef %14)
  store i64 %15, ptr %2, align 8
  store i32 1, ptr %5, align 4
  br label %16

16:                                               ; preds = %13, %10
  call void @llvm.lifetime.end.p0(i64 8, ptr %4) #22
  %17 = load i64, ptr %2, align 8
  ret i64 %17
}

; Function Attrs: inlinehint nounwind sspstrong uwtable
define internal i32 @rb_num2int_inline(i64 noundef %0) #5 {
  %2 = alloca i64, align 8
  %3 = alloca i64, align 8
  store i64 %0, ptr %2, align 8, !tbaa !22
  call void @llvm.lifetime.start.p0(i64 8, ptr %3) #22
  %4 = load i64, ptr %2, align 8, !tbaa !22
  %5 = call zeroext i1 @RB_FIXNUM_P(i64 noundef %4) #28
  br i1 %5, label %6, label %9

6:                                                ; preds = %1
  %7 = load i64, ptr %2, align 8, !tbaa !22
  %8 = call i64 @rb_fix2int(i64 noundef %7)
  store i64 %8, ptr %3, align 8, !tbaa !22
  br label %12

9:                                                ; preds = %1
  %10 = load i64, ptr %2, align 8, !tbaa !22
  %11 = call i64 @rb_num2int(i64 noundef %10)
  store i64 %11, ptr %3, align 8, !tbaa !22
  br label %12

12:                                               ; preds = %9, %6
  %13 = load i64, ptr %3, align 8, !tbaa !22
  %14 = trunc i64 %13 to i32
  call void @llvm.lifetime.end.p0(i64 8, ptr %3) #22
  ret i32 %14
}

; Function Attrs: inlinehint nounwind sspstrong uwtable
define internal i32 @rb_check_arity(i32 noundef %0, i32 noundef %1, i32 noundef %2) #5 {
  %4 = alloca i32, align 4
  %5 = alloca i32, align 4
  %6 = alloca i32, align 4
  store i32 %0, ptr %4, align 4, !tbaa !7
  store i32 %1, ptr %5, align 4, !tbaa !7
  store i32 %2, ptr %6, align 4, !tbaa !7
  %7 = load i32, ptr %4, align 4, !tbaa !7
  %8 = load i32, ptr %5, align 4, !tbaa !7
  %9 = icmp slt i32 %7, %8
  br i1 %9, label %17, label %10

10:                                               ; preds = %3
  %11 = load i32, ptr %6, align 4, !tbaa !7
  %12 = icmp ne i32 %11, -1
  br i1 %12, label %13, label %21

13:                                               ; preds = %10
  %14 = load i32, ptr %4, align 4, !tbaa !7
  %15 = load i32, ptr %6, align 4, !tbaa !7
  %16 = icmp sgt i32 %14, %15
  br i1 %16, label %17, label %21

17:                                               ; preds = %13, %3
  %18 = load i32, ptr %4, align 4, !tbaa !7
  %19 = load i32, ptr %5, align 4, !tbaa !7
  %20 = load i32, ptr %6, align 4, !tbaa !7
  call void @rb_error_arity(i32 noundef %18, i32 noundef %19, i32 noundef %20) #27
  unreachable

21:                                               ; preds = %13, %10
  %22 = load i32, ptr %4, align 4, !tbaa !7
  ret i32 %22
}

; Function Attrs: inlinehint nounwind sspstrong willreturn memory(none) uwtable
define internal zeroext i1 @RB_NIL_P(i64 noundef %0) #6 {
  %2 = alloca i64, align 8
  store i64 %0, ptr %2, align 8, !tbaa !22
  %3 = load i64, ptr %2, align 8, !tbaa !22
  %4 = icmp eq i64 %3, 4
  ret i1 %4
}

; Function Attrs: nounwind sspstrong uwtable
define internal i64 @esignal_init(i32 noundef %0, ptr noundef %1, i64 noundef %2) #1 {
  %4 = alloca i32, align 4
  %5 = alloca ptr, align 8
  %6 = alloca i64, align 8
  %7 = alloca i32, align 4
  %8 = alloca i64, align 8
  %9 = alloca i32, align 4
  %10 = alloca i32, align 4
  store i32 %0, ptr %4, align 4, !tbaa !7
  store ptr %1, ptr %5, align 8, !tbaa !20
  store i64 %2, ptr %6, align 8, !tbaa !22
  call void @llvm.lifetime.start.p0(i64 4, ptr %7) #22
  store i32 1, ptr %7, align 4, !tbaa !7
  call void @llvm.lifetime.start.p0(i64 8, ptr %8) #22
  store i64 4, ptr %8, align 8, !tbaa !22
  call void @llvm.lifetime.start.p0(i64 4, ptr %9) #22
  %11 = load i32, ptr %4, align 4, !tbaa !7
  %12 = icmp sgt i32 %11, 0
  br i1 %12, label %13, label %26

13:                                               ; preds = %3
  %14 = load ptr, ptr %5, align 8, !tbaa !20
  %15 = getelementptr i64, ptr %14, i64 0
  %16 = load i64, ptr %15, align 8, !tbaa !22
  %17 = call i64 @rb_check_to_integer(i64 noundef %16, ptr noundef @.str.37)
  store i64 %17, ptr %8, align 8, !tbaa !22
  %18 = load i64, ptr %8, align 8, !tbaa !22
  %19 = call zeroext i1 @RB_NIL_P(i64 noundef %18) #28
  br i1 %19, label %21, label %20

20:                                               ; preds = %13
  store i32 2, ptr %7, align 4, !tbaa !7
  br label %25

21:                                               ; preds = %13
  %22 = load ptr, ptr %5, align 8, !tbaa !20
  %23 = getelementptr i64, ptr %22, i64 0
  %24 = load i64, ptr %23, align 8, !tbaa !22
  store i64 %24, ptr %8, align 8, !tbaa !22
  br label %25

25:                                               ; preds = %21, %20
  br label %26

26:                                               ; preds = %25, %3
  %27 = load i32, ptr %4, align 4, !tbaa !7
  %28 = load i32, ptr %7, align 4, !tbaa !7
  %29 = call i32 @rb_check_arity(i32 noundef %27, i32 noundef 1, i32 noundef %28)
  %30 = load i32, ptr %7, align 4, !tbaa !7
  %31 = icmp eq i32 %30, 2
  br i1 %31, label %32, label %54

32:                                               ; preds = %26
  %33 = load i64, ptr %8, align 8, !tbaa !22
  %34 = call i32 @rb_num2int_inline(i64 noundef %33)
  store i32 %34, ptr %9, align 4, !tbaa !7
  %35 = load i32, ptr %9, align 4, !tbaa !7
  %36 = icmp slt i32 %35, 0
  br i1 %36, label %40, label %37

37:                                               ; preds = %32
  %38 = load i32, ptr %9, align 4, !tbaa !7
  %39 = icmp sgt i32 %38, 65
  br i1 %39, label %40, label %43

40:                                               ; preds = %37, %32
  %41 = load i64, ptr @rb_eArgError, align 8, !tbaa !22
  %42 = load i32, ptr %9, align 4, !tbaa !7
  call void (i64, ptr, ...) @rb_raise(i64 noundef %41, ptr noundef @.str.27, i32 noundef %42) #27
  unreachable

43:                                               ; preds = %37
  %44 = load i32, ptr %4, align 4, !tbaa !7
  %45 = icmp sgt i32 %44, 1
  br i1 %45, label %46, label %50

46:                                               ; preds = %43
  %47 = load ptr, ptr %5, align 8, !tbaa !20
  %48 = getelementptr i64, ptr %47, i64 1
  %49 = load i64, ptr %48, align 8, !tbaa !22
  store i64 %49, ptr %8, align 8, !tbaa !22
  br label %53

50:                                               ; preds = %43
  %51 = load i32, ptr %9, align 4, !tbaa !7
  %52 = call i64 @rb_signo2signm(i32 noundef %51)
  store i64 %52, ptr %8, align 8, !tbaa !22
  br label %53

53:                                               ; preds = %50, %46
  br label %63

54:                                               ; preds = %26
  call void @llvm.lifetime.start.p0(i64 4, ptr %10) #22
  %55 = call i32 @signm2signo(ptr noundef %8, i32 noundef 0, i32 noundef 0, ptr noundef %10)
  store i32 %55, ptr %9, align 4, !tbaa !7
  %56 = load i32, ptr %10, align 4, !tbaa !7
  %57 = icmp ne i32 %56, 3
  br i1 %57, label %58, label %62

58:                                               ; preds = %54
  %59 = call i64 @rbimpl_str_new_cstr(ptr noundef @.str.38)
  %60 = load i64, ptr %8, align 8, !tbaa !22
  %61 = call i64 @rb_str_append(i64 noundef %59, i64 noundef %60)
  store i64 %61, ptr %8, align 8, !tbaa !22
  br label %62

62:                                               ; preds = %58, %54
  call void @llvm.lifetime.end.p0(i64 4, ptr %10) #22
  br label %63

63:                                               ; preds = %62, %53
  %64 = call i64 @rb_call_super(i32 noundef 1, ptr noundef %8)
  %65 = load i64, ptr %6, align 8, !tbaa !22
  %66 = load i64, ptr @ruby_static_id_signo, align 8, !tbaa !22
  %67 = load i32, ptr %9, align 4, !tbaa !7
  %68 = call i64 @rb_int2num_inline(i32 noundef %67)
  %69 = call i64 @rb_ivar_set(i64 noundef %65, i64 noundef %66, i64 noundef %68)
  %70 = load i64, ptr %6, align 8, !tbaa !22
  call void @llvm.lifetime.end.p0(i64 4, ptr %9) #22
  call void @llvm.lifetime.end.p0(i64 8, ptr %8) #22
  call void @llvm.lifetime.end.p0(i64 4, ptr %7) #22
  ret i64 %70
}