; Function Attrs: nounwind sspstrong uwtable
define internal noundef i64 @esignal_init(i32 noundef %0, ptr noundef readonly captures(none) %1, i64 noundef returned %2) #1 {
  %4 = alloca i64, align 8
  %5 = alloca i32, align 4
  call void @llvm.lifetime.start.p0(i64 8, ptr nonnull %4) #17
  %6 = icmp sgt i32 %0, 0
  br i1 %6, label %7, label %.critedge.thread

7:                                                ; preds = %3
  %8 = load i64, ptr %1, align 8, !tbaa !20
  %9 = tail call i64 @rb_check_to_integer(i64 noundef %8, ptr noundef nonnull @.str.37) #17
  %10 = icmp eq i64 %9, 4
  br i1 %10, label %35, label %11

11:                                               ; preds = %7
  %12 = icmp samesign ugt i32 %0, 2
  br i1 %12, label %13, label %rb_check_arity.exit

13:                                               ; preds = %11
  tail call void @rb_error_arity(i32 noundef %0, i32 noundef 1, i32 noundef 2) #19
  unreachable

rb_check_arity.exit:                              ; preds = %11
  %14 = and i64 %9, 1
  %.not.i = icmp eq i64 %14, 0
  br i1 %.not.i, label %17, label %15

15:                                               ; preds = %rb_check_arity.exit
  %16 = tail call i64 @rb_fix2int(i64 noundef %9) #17
  br label %rb_num2int_inline.exit

17:                                               ; preds = %rb_check_arity.exit
  %18 = tail call i64 @rb_num2int(i64 noundef %9) #17
  br label %rb_num2int_inline.exit

rb_num2int_inline.exit:                           ; preds = %15, %17
  %.0.i = phi i64 [ %16, %15 ], [ %18, %17 ]
  %19 = trunc i64 %.0.i to i32
  %or.cond = icmp ugt i32 %19, 65
  br i1 %or.cond, label %20, label %22

20:                                               ; preds = %rb_num2int_inline.exit
  %21 = load i64, ptr @rb_eArgError, align 8, !tbaa !20
  tail call void (i64, ptr, ...) @rb_raise(i64 noundef %21, ptr noundef nonnull @.str.27, i32 noundef %19) #19
  unreachable

22:                                               ; preds = %rb_num2int_inline.exit
  %.not19 = icmp eq i32 %0, 1
  br i1 %.not19, label %.preheader, label %23

23:                                               ; preds = %22
  %24 = getelementptr i8, ptr %1, i64 8
  %25 = load i64, ptr %24, align 8, !tbaa !20
  store i64 %25, ptr %4, align 8, !tbaa !20
  br label %44

.preheader:                                       ; preds = %22, %29
  %.06.i.i = phi ptr [ %30, %29 ], [ @siglist, %22 ]
  %26 = getelementptr inbounds nuw i8, ptr %.06.i.i, i64 8
  %27 = load i32, ptr %26, align 4, !tbaa !7
  %28 = icmp eq i32 %27, %19
  br i1 %28, label %signo2signm.exit.i, label %29

29:                                               ; preds = %.preheader
  %30 = getelementptr i8, ptr %.06.i.i, i64 12
  %31 = icmp ult ptr %30, getelementptr inbounds nuw (i8, ptr @siglist, i64 408)
  br i1 %31, label %.preheader, label %33, !llvm.loop !12

signo2signm.exit.i:                               ; preds = %.preheader
  %32 = tail call i64 (ptr, ...) @rb_sprintf(ptr noundef nonnull @.str.35, ptr noundef nonnull %.06.i.i) #17
  br label %rb_signo2signm.exit

33:                                               ; preds = %29
  %34 = tail call i64 (ptr, ...) @rb_sprintf(ptr noundef nonnull @.str.36, i32 noundef %19) #17
  br label %rb_signo2signm.exit

rb_signo2signm.exit:                              ; preds = %signo2signm.exit.i, %33
  %.0.i17 = phi i64 [ %32, %signo2signm.exit.i ], [ %34, %33 ]
  store i64 %.0.i17, ptr %4, align 8, !tbaa !20
  br label %44

35:                                               ; preds = %7
  %36 = load i64, ptr %1, align 8, !tbaa !20
  store i64 %36, ptr %4, align 8, !tbaa !20
  %.not20 = icmp eq i32 %0, 1
  br i1 %.not20, label %rb_check_arity.exit18, label %.critedge.thread

.critedge.thread:                                 ; preds = %3, %35
  tail call void @rb_error_arity(i32 noundef %0, i32 noundef 1, i32 noundef 1) #19
  unreachable

rb_check_arity.exit18:                            ; preds = %35
  call void @llvm.lifetime.start.p0(i64 4, ptr nonnull %5) #17
  %37 = call fastcc i32 @signm2signo(ptr noundef %4, i32 noundef 0, i32 noundef 0, ptr noundef nonnull %5)
  %38 = load i32, ptr %5, align 4, !tbaa !19
  %.not = icmp eq i32 %38, 3
  br i1 %.not, label %43, label %39

39:                                               ; preds = %rb_check_arity.exit18
  %40 = call i64 @rb_str_new_static(ptr noundef nonnull @.str.38, i64 noundef 3) #17
  %41 = load i64, ptr %4, align 8, !tbaa !20
  %42 = call i64 @rb_str_append(i64 noundef %40, i64 noundef %41) #17
  store i64 %42, ptr %4, align 8, !tbaa !20
  br label %43

43:                                               ; preds = %39, %rb_check_arity.exit18
  call void @llvm.lifetime.end.p0(i64 4, ptr nonnull %5) #17
  br label %44

44:                                               ; preds = %23, %rb_signo2signm.exit, %43
  %.0 = phi i32 [ %19, %23 ], [ %19, %rb_signo2signm.exit ], [ %37, %43 ]
  %45 = call i64 @rb_call_super(i32 noundef 1, ptr noundef nonnull %4) #17
  %46 = load i64, ptr @ruby_static_id_signo, align 8, !tbaa !20
  %47 = sext i32 %.0 to i64
  %48 = shl nsw i64 %47, 1
  %49 = or disjoint i64 %48, 1
  %50 = call i64 @rb_ivar_set(i64 noundef %2, i64 noundef %46, i64 noundef %49) #17
  call void @llvm.lifetime.end.p0(i64 8, ptr nonnull %4) #17
  ret i64 %2
}